; Function Attrs: nounwind uwtable
define hidden i32 @BN_num_bits(ptr noundef %0) local_unnamed_addr #0 {
  %2 = getelementptr inbounds nuw i8, ptr %0, i64 8
  %3 = load i32, ptr %2, align 8, !tbaa !15
  %4 = tail call i32 @BN_is_zero(ptr noundef %0) #14
  %.not = icmp eq i32 %4, 0
  br i1 %.not, label %5, label %65

5:                                                ; preds = %1
  %6 = add nsw i32 %3, -1
  %7 = shl nsw i32 %6, 6
  %8 = load ptr, ptr %0, align 8, !tbaa !13
  %9 = sext i32 %6 to i64
  %10 = getelementptr inbounds i64, ptr %8, i64 %9
  %11 = load i64, ptr %10, align 8, !tbaa !18
  %.not.i = icmp ult i64 %11, 4294967296
  br i1 %.not.i, label %39, label %12

12:                                               ; preds = %5
  %.not19.i = icmp ult i64 %11, 281474976710656
  br i1 %.not19.i, label %26, label %13

13:                                               ; preds = %12
  %.not21.i = icmp ult i64 %11, 72057594037927936
  br i1 %.not21.i, label %20, label %14

14:                                               ; preds = %13
  %15 = lshr i64 %11, 56
  %16 = getelementptr inbounds nuw [256 x i8], ptr @BN_num_bits_word.bits, i64 0, i64 %15
  %17 = load i8, ptr %16, align 1, !tbaa !17
  %18 = zext i8 %17 to i32
  %19 = add nuw nsw i32 %18, 56
  br label %BN_num_bits_word.exit

20:                                               ; preds = %13
  %21 = lshr i64 %11, 48
  %22 = getelementptr inbounds nuw [256 x i8], ptr @BN_num_bits_word.bits, i64 0, i64 %21
  %23 = load i8, ptr %22, align 1, !tbaa !17
  %24 = zext i8 %23 to i32
  %25 = add nuw nsw i32 %24, 48
  br label %BN_num_bits_word.exit

26:                                               ; preds = %12
  %.not20.i = icmp samesign ult i64 %11, 1099511627776
  br i1 %.not20.i, label %33, label %27

27:                                               ; preds = %26
  %28 = lshr i64 %11, 40
  %29 = getelementptr inbounds nuw [256 x i8], ptr @BN_num_bits_word.bits, i64 0, i64 %28
  %30 = load i8, ptr %29, align 1, !tbaa !17
  %31 = zext i8 %30 to i32
  %32 = add nuw nsw i32 %31, 40
  br label %BN_num_bits_word.exit

33:                                               ; preds = %26
  %34 = lshr i64 %11, 32
  %35 = getelementptr inbounds nuw [256 x i8], ptr @BN_num_bits_word.bits, i64 0, i64 %34
  %36 = load i8, ptr %35, align 1, !tbaa !17
  %37 = zext i8 %36 to i32
  %38 = add nuw nsw i32 %37, 32
  br label %BN_num_bits_word.exit

39:                                               ; preds = %5
  %.not16.i = icmp samesign ult i64 %11, 65536
  br i1 %.not16.i, label %53, label %40

40:                                               ; preds = %39
  %.not18.i = icmp samesign ult i64 %11, 16777216
  br i1 %.not18.i, label %47, label %41

41:                                               ; preds = %40
  %42 = lshr i64 %11, 24
  %43 = getelementptr inbounds nuw [256 x i8], ptr @BN_num_bits_word.bits, i64 0, i64 %42
  %44 = load i8, ptr %43, align 1, !tbaa !17
  %45 = zext i8 %44 to i32
  %46 = add nuw nsw i32 %45, 24
  br label %BN_num_bits_word.exit

47:                                               ; preds = %40
  %48 = lshr i64 %11, 16
  %49 = getelementptr inbounds nuw [256 x i8], ptr @BN_num_bits_word.bits, i64 0, i64 %48
  %50 = load i8, ptr %49, align 1, !tbaa !17
  %51 = zext i8 %50 to i32
  %52 = add nuw nsw i32 %51, 16
  br label %BN_num_bits_word.exit

53:                                               ; preds = %39
  %.not17.i = icmp samesign ult i64 %11, 256
  br i1 %.not17.i, label %60, label %54

54:                                               ; preds = %53
  %55 = lshr i64 %11, 8
  %56 = getelementptr inbounds nuw [256 x i8], ptr @BN_num_bits_word.bits, i64 0, i64 %55
  %57 = load i8, ptr %56, align 1, !tbaa !17
  %58 = zext i8 %57 to i32
  %59 = add nuw nsw i32 %58, 8
  br label %BN_num_bits_word.exit

60:                                               ; preds = %53
  %61 = getelementptr inbounds nuw [256 x i8], ptr @BN_num_bits_word.bits, i64 0, i64 %11
  %62 = load i8, ptr %61, align 1, !tbaa !17
  %63 = zext i8 %62 to i32
  br label %BN_num_bits_word.exit

BN_num_bits_word.exit:                            ; preds = %14, %20, %27, %33, %41, %47, %54, %60
  %.0.i = phi i32 [ %19, %14 ], [ %25, %20 ], [ %32, %27 ], [ %38, %33 ], [ %46, %41 ], [ %52, %47 ], [ %59, %54 ], [ %63, %60 ]
  %64 = add i32 %.0.i, %7
  br label %65

65:                                               ; preds = %1, %BN_num_bits_word.exit
  %.0 = phi i32 [ %64, %BN_num_bits_word.exit ], [ 0, %1 ]
  ret i32 %.0
}